target datalayout = "e-m:e-p270:32:32-p271:32:32-p272:64:64-i64:64-i128:128-f80:128-n8:16:32:64-S128"
target triple = "x86_64-pc-linux-gnu"

%"class.pxrInternal_v0_24__pxrReserved__::SdfPredicateFunctionResult" = type { i8, i32 }
%"class.__gnu_cxx::__normal_iterator" = type { ptr }
%class.anon.160 = type { ptr, ptr, ptr }
%"class.pxrInternal_v0_24__pxrReserved__::SdfPath" = type { %"struct.pxrInternal_v0_24__pxrReserved__::Sdf_PathNodeHandleImpl", %"struct.pxrInternal_v0_24__pxrReserved__::Sdf_PathNodeHandleImpl.28" }
%"struct.pxrInternal_v0_24__pxrReserved__::Sdf_PathNodeHandleImpl" = type { %"struct.pxrInternal_v0_24__pxrReserved__::Sdf_Pool<pxrInternal_v0_24__pxrReserved__::Sdf_PathPrimTag, 24, 8>::Handle" }
%"struct.pxrInternal_v0_24__pxrReserved__::Sdf_Pool<pxrInternal_v0_24__pxrReserved__::Sdf_PathPrimTag, 24, 8>::Handle" = type { i32 }
%"struct.pxrInternal_v0_24__pxrReserved__::Sdf_PathNodeHandleImpl.28" = type { %"struct.pxrInternal_v0_24__pxrReserved__::Sdf_Pool<pxrInternal_v0_24__pxrReserved__::Sdf_PathPropTag, 24, 8>::Handle" }
%"struct.pxrInternal_v0_24__pxrReserved__::Sdf_Pool<pxrInternal_v0_24__pxrReserved__::Sdf_PathPropTag, 24, 8>::Handle" = type { i32 }
%"class.pxrInternal_v0_24__pxrReserved__::SdfPathExpressionEval<const pxrInternal_v0_24__pxrReserved__::HdSceneIndexPrim &>::_PatternImpl" = type { %"class.pxrInternal_v0_24__pxrReserved__::Sdf_PathExpressionEvalBase::_PatternImplBase.base", %"class.std::vector.77" }
%"class.pxrInternal_v0_24__pxrReserved__::Sdf_PathExpressionEvalBase::_PatternImplBase.base" = type <{ %"class.pxrInternal_v0_24__pxrReserved__::SdfPath", %"class.std::vector.57", %"class.std::vector.62", %"class.std::vector.67", %"class.std::vector.72", i8, i8, i8 }>
%"class.std::vector.57" = type { %"struct.std::_Vector_base.58" }
%"struct.std::_Vector_base.58" = type { %"struct.std::_Vector_base<pxrInternal_v0_24__pxrReserved__::Sdf_PathExpressionEvalBase::_PatternImplBase::_Component, std::allocator<pxrInternal_v0_24__pxrReserved__::Sdf_PathExpressionEvalBase::_PatternImplBase::_Component>>::_Vector_impl" }
%"struct.std::_Vector_base<pxrInternal_v0_24__pxrReserved__::Sdf_PathExpressionEvalBase::_PatternImplBase::_Component, std::allocator<pxrInternal_v0_24__pxrReserved__::Sdf_PathExpressionEvalBase::_PatternImplBase::_Component>>::_Vector_impl" = type { %"struct.std::_Vector_base<pxrInternal_v0_24__pxrReserved__::Sdf_PathExpressionEvalBase::_PatternImplBase::_Component, std::allocator<pxrInternal_v0_24__pxrReserved__::Sdf_PathExpressionEvalBase::_PatternImplBase::_Component>>::_Vector_impl_data" }
%"struct.std::_Vector_base<pxrInternal_v0_24__pxrReserved__::Sdf_PathExpressionEvalBase::_PatternImplBase::_Component, std::allocator<pxrInternal_v0_24__pxrReserved__::Sdf_PathExpressionEvalBase::_PatternImplBase::_Component>>::_Vector_impl_data" = type { ptr, ptr, ptr }
%"class.std::vector.62" = type { %"struct.std::_Vector_base.63" }
%"struct.std::_Vector_base.63" = type { %"struct.std::_Vector_base<pxrInternal_v0_24__pxrReserved__::Sdf_PathExpressionEvalBase::_PatternImplBase::_Segment, std::allocator<pxrInternal_v0_24__pxrReserved__::Sdf_PathExpressionEvalBase::_PatternImplBase::_Segment>>::_Vector_impl" }
%"struct.std::_Vector_base<pxrInternal_v0_24__pxrReserved__::Sdf_PathExpressionEvalBase::_PatternImplBase::_Segment, std::allocator<pxrInternal_v0_24__pxrReserved__::Sdf_PathExpressionEvalBase::_PatternImplBase::_Segment>>::_Vector_impl" = type { %"struct.std::_Vector_base<pxrInternal_v0_24__pxrReserved__::Sdf_PathExpressionEvalBase::_PatternImplBase::_Segment, std::allocator<pxrInternal_v0_24__pxrReserved__::Sdf_PathExpressionEvalBase::_PatternImplBase::_Segment>>::_Vector_impl_data" }
%"struct.std::_Vector_base<pxrInternal_v0_24__pxrReserved__::Sdf_PathExpressionEvalBase::_PatternImplBase::_Segment, std::allocator<pxrInternal_v0_24__pxrReserved__::Sdf_PathExpressionEvalBase::_PatternImplBase::_Segment>>::_Vector_impl_data" = type { ptr, ptr, ptr }
%"class.std::vector.67" = type { %"struct.std::_Vector_base.68" }
%"struct.std::_Vector_base.68" = type { %"struct.std::_Vector_base<std::__cxx11::basic_string<char>, std::allocator<std::__cxx11::basic_string<char>>>::_Vector_impl" }
%"struct.std::_Vector_base<std::__cxx11::basic_string<char>, std::allocator<std::__cxx11::basic_string<char>>>::_Vector_impl" = type { %"struct.std::_Vector_base<std::__cxx11::basic_string<char>, std::allocator<std::__cxx11::basic_string<char>>>::_Vector_impl_data" }
%"struct.std::_Vector_base<std::__cxx11::basic_string<char>, std::allocator<std::__cxx11::basic_string<char>>>::_Vector_impl_data" = type { ptr, ptr, ptr }
%"class.std::vector.72" = type { %"struct.std::_Vector_base.73" }
%"struct.std::_Vector_base.73" = type { %"struct.std::_Vector_base<pxrInternal_v0_24__pxrReserved__::ArchRegex, std::allocator<pxrInternal_v0_24__pxrReserved__::ArchRegex>>::_Vector_impl" }
%"struct.std::_Vector_base<pxrInternal_v0_24__pxrReserved__::ArchRegex, std::allocator<pxrInternal_v0_24__pxrReserved__::ArchRegex>>::_Vector_impl" = type { %"struct.std::_Vector_base<pxrInternal_v0_24__pxrReserved__::ArchRegex, std::allocator<pxrInternal_v0_24__pxrReserved__::ArchRegex>>::_Vector_impl_data" }
%"struct.std::_Vector_base<pxrInternal_v0_24__pxrReserved__::ArchRegex, std::allocator<pxrInternal_v0_24__pxrReserved__::ArchRegex>>::_Vector_impl_data" = type { ptr, ptr, ptr }
%"class.std::vector.77" = type { %"struct.std::_Vector_base.78" }
%"struct.std::_Vector_base.78" = type { %"struct.std::_Vector_base<pxrInternal_v0_24__pxrReserved__::SdfPredicateProgram<const pxrInternal_v0_24__pxrReserved__::HdSceneIndexPrim &>, std::allocator<pxrInternal_v0_24__pxrReserved__::SdfPredicateProgram<const pxrInternal_v0_24__pxrReserved__::HdSceneIndexPrim &>>>::_Vector_impl" }
%"struct.std::_Vector_base<pxrInternal_v0_24__pxrReserved__::SdfPredicateProgram<const pxrInternal_v0_24__pxrReserved__::HdSceneIndexPrim &>, std::allocator<pxrInternal_v0_24__pxrReserved__::SdfPredicateProgram<const pxrInternal_v0_24__pxrReserved__::HdSceneIndexPrim &>>>::_Vector_impl" = type { %"struct.std::_Vector_base<pxrInternal_v0_24__pxrReserved__::SdfPredicateProgram<const pxrInternal_v0_24__pxrReserved__::HdSceneIndexPrim &>, std::allocator<pxrInternal_v0_24__pxrReserved__::SdfPredicateProgram<const pxrInternal_v0_24__pxrReserved__::HdSceneIndexPrim &>>>::_Vector_impl_data" }
%"struct.std::_Vector_base<pxrInternal_v0_24__pxrReserved__::SdfPredicateProgram<const pxrInternal_v0_24__pxrReserved__::HdSceneIndexPrim &>, std::allocator<pxrInternal_v0_24__pxrReserved__::SdfPredicateProgram<const pxrInternal_v0_24__pxrReserved__::HdSceneIndexPrim &>>>::_Vector_impl_data" = type { ptr, ptr, ptr }
%class.anon.162 = type { ptr, ptr }
%"class.pxrInternal_v0_24__pxrReserved__::TfFunctionRef.163" = type { ptr, ptr }

; Function Attrs: mustprogress nounwind uwtable
define internal void @"_ZN32pxrInternal_v0_24__pxrReserved__13TfFunctionRefIFNS_26SdfPredicateFunctionResultEiRKNS_7SdfPathEEEC2IZNKS_21SdfPathExpressionEvalIRKNS_16HdSceneIndexPrimEE12_PatternImpl5MatchIZNKS_31HdCollectionExpressionEvaluator5MatchES4_E3$_0EES1_S4_RKT_EUliS4_E_vEERSH_"(ptr noundef nonnull align 8 dereferenceable(16) %0, ptr noundef nonnull align 8 dereferenceable(16) %1) unnamed_addr #2 align 2 {
  %3 = alloca ptr, align 8
  %4 = alloca ptr, align 8
  store ptr %0, ptr %3, align 8
  store ptr %1, ptr %4, align 8
  %5 = load ptr, ptr %3, align 8
  %6 = getelementptr inbounds nuw %"class.pxrInternal_v0_24__pxrReserved__::TfFunctionRef.163", ptr %5, i32 0, i32 0
  %7 = load ptr, ptr %4, align 8
  store ptr %7, ptr %6, align 8
  %8 = getelementptr inbounds nuw %"class.pxrInternal_v0_24__pxrReserved__::TfFunctionRef.163", ptr %5, i32 0, i32 1
  store ptr @"_ZN32pxrInternal_v0_24__pxrReserved__13TfFunctionRefIFNS_26SdfPredicateFunctionResultEiRKNS_7SdfPathEEE9_InvokeFnIZNKS_21SdfPathExpressionEvalIRKNS_16HdSceneIndexPrimEE12_PatternImpl5MatchIZNKS_31HdCollectionExpressionEvaluator5MatchES4_E3$_0EES1_S4_RKT_EUliS4_E_EES1_PKviS4_", ptr %8, align 8
  ret void
}

; Function Attrs: mustprogress nounwind uwtable
define linkonce_odr void @_ZN9__gnu_cxx17__normal_iteratorIPKN32pxrInternal_v0_24__pxrReserved__21SdfPathExpressionEvalIRKNS1_16HdSceneIndexPrimEE12_PatternImplESt6vectorIS7_SaIS7_EEEC2ERKS9_(ptr noundef nonnull align 8 dereferenceable(8) %0, ptr noundef nonnull align 8 dereferenceable(8) %1) unnamed_addr #2 comdat align 2 {
  %3 = alloca ptr, align 8
  %4 = alloca ptr, align 8
  store ptr %0, ptr %3, align 8
  store ptr %1, ptr %4, align 8
  %5 = load ptr, ptr %3, align 8
  %6 = getelementptr inbounds nuw %"class.__gnu_cxx::__normal_iterator", ptr %5, i32 0, i32 0
  %7 = load ptr, ptr %4, align 8
  %8 = load ptr, ptr %7, align 8
  store ptr %8, ptr %6, align 8
  ret void
}

; Function Attrs: mustprogress uwtable
define internal i64 @"_ZNK32pxrInternal_v0_24__pxrReserved__21SdfPathExpressionEvalIRKNS_16HdSceneIndexPrimEE12_PatternImpl5MatchIZNKS_31HdCollectionExpressionEvaluator5MatchERKNS_7SdfPathEE3$_0EENS_26SdfPredicateFunctionResultESA_RKT_"(ptr noundef nonnull align 8 dereferenceable(136) %0, ptr noundef nonnull align 4 dereferenceable(8) %1, ptr noundef nonnull align 8 dereferenceable(8) %2) #0 align 2 {
  %4 = alloca %"class.pxrInternal_v0_24__pxrReserved__::SdfPredicateFunctionResult", align 4
  %5 = alloca ptr, align 8
  %6 = alloca ptr, align 8
  %7 = alloca ptr, align 8
  %8 = alloca %class.anon.162, align 8
  %9 = alloca %"class.pxrInternal_v0_24__pxrReserved__::TfFunctionRef.163", align 8
  store ptr %0, ptr %5, align 8
  store ptr %1, ptr %6, align 8
  store ptr %2, ptr %7, align 8
  %10 = load ptr, ptr %5, align 8
  %11 = getelementptr inbounds nuw %class.anon.162, ptr %8, i32 0, i32 0
  store ptr %10, ptr %11, align 8
  %12 = getelementptr inbounds nuw %class.anon.162, ptr %8, i32 0, i32 1
  %13 = load ptr, ptr %7, align 8
  store ptr %13, ptr %12, align 8
  %14 = load ptr, ptr %6, align 8
  call void @"_ZN32pxrInternal_v0_24__pxrReserved__13TfFunctionRefIFNS_26SdfPredicateFunctionResultEiRKNS_7SdfPathEEEC2IZNKS_21SdfPathExpressionEvalIRKNS_16HdSceneIndexPrimEE12_PatternImpl5MatchIZNKS_31HdCollectionExpressionEvaluator5MatchES4_E3$_0EES1_S4_RKT_EUliS4_E_vEERSH_"(ptr noundef nonnull align 8 dereferenceable(16) %9, ptr noundef nonnull align 8 dereferenceable(16) %8) #11
  %15 = getelementptr inbounds nuw { ptr, ptr }, ptr %9, i32 0, i32 0
  %16 = load ptr, ptr %15, align 8
  %17 = getelementptr inbounds nuw { ptr, ptr }, ptr %9, i32 0, i32 1
  %18 = load ptr, ptr %17, align 8
  %19 = call i64 @_ZNK32pxrInternal_v0_24__pxrReserved__26Sdf_PathExpressionEvalBase16_PatternImplBase6_MatchERKNS_7SdfPathENS_13TfFunctionRefIFNS_26SdfPredicateFunctionResultEiS4_EEE(ptr noundef nonnull align 8 dereferenceable(107) %10, ptr noundef nonnull align 4 dereferenceable(8) %14, ptr %16, ptr %18)
  store i64 %19, ptr %4, align 4
  %20 = load i64, ptr %4, align 4
  ret i64 %20
}

; Function Attrs: mustprogress nounwind uwtable
define linkonce_odr noundef nonnull align 8 dereferenceable(136) ptr @_ZNK9__gnu_cxx17__normal_iteratorIPKN32pxrInternal_v0_24__pxrReserved__21SdfPathExpressionEvalIRKNS1_16HdSceneIndexPrimEE12_PatternImplESt6vectorIS7_SaIS7_EEEdeEv(ptr noundef nonnull align 8 dereferenceable(8) %0) #2 comdat align 2 {
  %2 = alloca ptr, align 8
  store ptr %0, ptr %2, align 8
  %3 = load ptr, ptr %2, align 8
  %4 = getelementptr inbounds nuw %"class.__gnu_cxx::__normal_iterator", ptr %3, i32 0, i32 0
  %5 = load ptr, ptr %4, align 8
  ret ptr %5
}

; Function Attrs: mustprogress nounwind uwtable
define linkonce_odr ptr @_ZN9__gnu_cxx17__normal_iteratorIPKN32pxrInternal_v0_24__pxrReserved__21SdfPathExpressionEvalIRKNS1_16HdSceneIndexPrimEE12_PatternImplESt6vectorIS7_SaIS7_EEEppEi(ptr noundef nonnull align 8 dereferenceable(8) %0, i32 noundef %1) #2 comdat align 2 {
  %3 = alloca %"class.__gnu_cxx::__normal_iterator", align 8
  %4 = alloca ptr, align 8
  %5 = alloca i32, align 4
  %6 = alloca ptr, align 8
  store ptr %0, ptr %4, align 8
  store i32 %1, ptr %5, align 4
  %7 = load ptr, ptr %4, align 8
  %8 = getelementptr inbounds nuw %"class.__gnu_cxx::__normal_iterator", ptr %7, i32 0, i32 0
  %9 = load ptr, ptr %8, align 8
  %10 = getelementptr inbounds %"class.pxrInternal_v0_24__pxrReserved__::SdfPathExpressionEval<const pxrInternal_v0_24__pxrReserved__::HdSceneIndexPrim &>::_PatternImpl", ptr %9, i32 1
  store ptr %10, ptr %8, align 8
  store ptr %9, ptr %6, align 8
  call void @_ZN9__gnu_cxx17__normal_iteratorIPKN32pxrInternal_v0_24__pxrReserved__21SdfPathExpressionEvalIRKNS1_16HdSceneIndexPrimEE12_PatternImplESt6vectorIS7_SaIS7_EEEC2ERKS9_(ptr noundef nonnull align 8 dereferenceable(8) %3, ptr noundef nonnull align 8 dereferenceable(8) %6) #11
  %11 = getelementptr inbounds nuw %"class.__gnu_cxx::__normal_iterator", ptr %3, i32 0, i32 0
  %12 = load ptr, ptr %11, align 8
  ret ptr %12
}

; Function Attrs: mustprogress nounwind uwtable
define linkonce_odr void @_ZN32pxrInternal_v0_24__pxrReserved__26SdfPredicateFunctionResultC2Ev(ptr noundef nonnull align 4 dereferenceable(8) %0) unnamed_addr #2 comdat align 2 {
  %2 = alloca ptr, align 8
  store ptr %0, ptr %2, align 8
  %3 = load ptr, ptr %2, align 8
  %4 = getelementptr inbounds nuw %"class.pxrInternal_v0_24__pxrReserved__::SdfPredicateFunctionResult", ptr %3, i32 0, i32 0
  store i8 0, ptr %4, align 4
  %5 = getelementptr inbounds nuw %"class.pxrInternal_v0_24__pxrReserved__::SdfPredicateFunctionResult", ptr %3, i32 0, i32 1
  store i32 1, ptr %5, align 4
  ret void
}

; Function Attrs: mustprogress nounwind uwtable
define linkonce_odr noundef nonnull align 8 dereferenceable(8) ptr @_ZN9__gnu_cxx17__normal_iteratorIPKN32pxrInternal_v0_24__pxrReserved__21SdfPathExpressionEvalIRKNS1_16HdSceneIndexPrimEE12_PatternImplESt6vectorIS7_SaIS7_EEEppEv(ptr noundef nonnull align 8 dereferenceable(8) %0) #2 comdat align 2 {
  %2 = alloca ptr, align 8
  store ptr %0, ptr %2, align 8
  %3 = load ptr, ptr %2, align 8
  %4 = getelementptr inbounds nuw %"class.__gnu_cxx::__normal_iterator", ptr %3, i32 0, i32 0
  %5 = load ptr, ptr %4, align 8
  %6 = getelementptr inbounds %"class.pxrInternal_v0_24__pxrReserved__::SdfPathExpressionEval<const pxrInternal_v0_24__pxrReserved__::HdSceneIndexPrim &>::_PatternImpl", ptr %5, i32 1
  store ptr %6, ptr %4, align 8
  ret ptr %3
}

; Function Attrs: mustprogress uwtable
define internal i64 @"_ZZNK32pxrInternal_v0_24__pxrReserved__21SdfPathExpressionEvalIRKNS_16HdSceneIndexPrimEE5MatchIZNKS_31HdCollectionExpressionEvaluator5MatchERKNS_7SdfPathEE3$_0EENS_26SdfPredicateFunctionResultES9_RKT_ENKUlbE_clEb"(ptr noundef nonnull align 8 dereferenceable(24) %0, i1 noundef zeroext %1) #0 align 2 {
  %3 = alloca %"class.pxrInternal_v0_24__pxrReserved__::SdfPredicateFunctionResult", align 4
  %4 = alloca ptr, align 8
  %5 = alloca i8, align 1
  %6 = alloca %"class.__gnu_cxx::__normal_iterator", align 8
  store ptr %0, ptr %4, align 8
  %7 = zext i1 %1 to i8
  store i8 %7, ptr %5, align 1
  %8 = load ptr, ptr %4, align 8
  %9 = load i8, ptr %5, align 1
  %10 = trunc i8 %9 to i1
  br i1 %10, label %11, label %15

11:                                               ; preds = %2
  %12 = getelementptr inbounds nuw %class.anon.160, ptr %8, i32 0, i32 0
  %13 = load ptr, ptr %12, align 8
  %14 = call noundef nonnull align 8 dereferenceable(8) ptr @_ZN9__gnu_cxx17__normal_iteratorIPKN32pxrInternal_v0_24__pxrReserved__21SdfPathExpressionEvalIRKNS1_16HdSceneIndexPrimEE12_PatternImplESt6vectorIS7_SaIS7_EEEppEv(ptr noundef nonnull align 8 dereferenceable(8) %13) #11
  call void @_ZN32pxrInternal_v0_24__pxrReserved__26SdfPredicateFunctionResultC2Ev(ptr noundef nonnull align 4 dereferenceable(8) %3)
  br label %26

15:                                               ; preds = %2
  %16 = getelementptr inbounds nuw %class.anon.160, ptr %8, i32 0, i32 0
  %17 = load ptr, ptr %16, align 8
  %18 = call ptr @_ZN9__gnu_cxx17__normal_iteratorIPKN32pxrInternal_v0_24__pxrReserved__21SdfPathExpressionEvalIRKNS1_16HdSceneIndexPrimEE12_PatternImplESt6vectorIS7_SaIS7_EEEppEi(ptr noundef nonnull align 8 dereferenceable(8) %17, i32 noundef 0) #11
  %19 = getelementptr inbounds nuw %"class.__gnu_cxx::__normal_iterator", ptr %6, i32 0, i32 0
  store ptr %18, ptr %19, align 8
  %20 = call noundef nonnull align 8 dereferenceable(136) ptr @_ZNK9__gnu_cxx17__normal_iteratorIPKN32pxrInternal_v0_24__pxrReserved__21SdfPathExpressionEvalIRKNS1_16HdSceneIndexPrimEE12_PatternImplESt6vectorIS7_SaIS7_EEEdeEv(ptr noundef nonnull align 8 dereferenceable(8) %6) #11
  %21 = getelementptr inbounds nuw %class.anon.160, ptr %8, i32 0, i32 1
  %22 = load ptr, ptr %21, align 8
  %23 = getelementptr inbounds nuw %class.anon.160, ptr %8, i32 0, i32 2
  %24 = load ptr, ptr %23, align 8
  %25 = call i64 @"_ZNK32pxrInternal_v0_24__pxrReserved__21SdfPathExpressionEvalIRKNS_16HdSceneIndexPrimEE12_PatternImpl5MatchIZNKS_31HdCollectionExpressionEvaluator5MatchERKNS_7SdfPathEE3$_0EENS_26SdfPredicateFunctionResultESA_RKT_"(ptr noundef nonnull align 8 dereferenceable(136) %20, ptr noundef nonnull align 4 dereferenceable(8) %22, ptr noundef nonnull align 8 dereferenceable(8) %24)
  store i64 %25, ptr %3, align 4
  br label %26

26:                                               ; preds = %15, %11
  %27 = load i64, ptr %3, align 4
  ret i64 %27
}

; Function Attrs: mustprogress uwtable
define internal i64 @"_ZN32pxrInternal_v0_24__pxrReserved__13TfFunctionRefIFNS_26SdfPredicateFunctionResultEbEE9_InvokeFnIZNKS_21SdfPathExpressionEvalIRKNS_16HdSceneIndexPrimEE5MatchIZNKS_31HdCollectionExpressionEvaluator5MatchERKNS_7SdfPathEE3$_0EES1_SE_RKT_EUlbE_EES1_PKvb"(ptr noundef %0, i1 noundef zeroext %1) #0 align 2 {
  %3 = alloca %"class.pxrInternal_v0_24__pxrReserved__::SdfPredicateFunctionResult", align 4
  %4 = alloca ptr, align 8
  %5 = alloca i8, align 1
  store ptr %0, ptr %4, align 8
  %6 = zext i1 %1 to i8
  store i8 %6, ptr %5, align 1
  %7 = load ptr, ptr %4, align 8
  %8 = load i8, ptr %5, align 1
  %9 = trunc i8 %8 to i1
  %10 = call i64 @"_ZZNK32pxrInternal_v0_24__pxrReserved__21SdfPathExpressionEvalIRKNS_16HdSceneIndexPrimEE5MatchIZNKS_31HdCollectionExpressionEvaluator5MatchERKNS_7SdfPathEE3$_0EENS_26SdfPredicateFunctionResultES9_RKT_ENKUlbE_clEb"(ptr noundef nonnull align 8 dereferenceable(24) %7, i1 noundef zeroext %9)
  store i64 %10, ptr %3, align 4
  %11 = load i64, ptr %3, align 4
  ret i64 %11
}