; Function Attrs: mustprogress uwtable
define internal i64 @"_ZN32pxrInternal_v0_24__pxrReserved__13TfFunctionRefIFNS_26SdfPredicateFunctionResultEbEE9_InvokeFnIZNKS_21SdfPathExpressionEvalIRKNS_16HdSceneIndexPrimEE5MatchIZNKS_31HdCollectionExpressionEvaluator5MatchERKNS_7SdfPathEE3$_0EES1_SE_RKT_EUlbE_EES1_PKvb"(ptr nocapture noundef readonly %0, i1 noundef zeroext %1) #0 align 2 {
  %3 = alloca %class.anon.162, align 8
  %4 = load ptr, ptr %0, align 8
  %5 = load ptr, ptr %4, align 8
  %6 = getelementptr inbounds i8, ptr %5, i64 136
  store ptr %6, ptr %4, align 8
  br i1 %1, label %"_ZZNK32pxrInternal_v0_24__pxrReserved__21SdfPathExpressionEvalIRKNS_16HdSceneIndexPrimEE5MatchIZNKS_31HdCollectionExpressionEvaluator5MatchERKNS_7SdfPathEE3$_0EENS_26SdfPredicateFunctionResultES9_RKT_ENKUlbE_clEb.exit", label %7

7:                                                ; preds = %2
  %8 = getelementptr inbounds nuw i8, ptr %0, i64 8
  %9 = load ptr, ptr %8, align 8
  %10 = getelementptr inbounds nuw i8, ptr %0, i64 16
  %11 = load ptr, ptr %10, align 8
  call void @llvm.lifetime.start.p0(i64 16, ptr nonnull %3)
  store ptr %5, ptr %3, align 8
  %12 = getelementptr inbounds nuw i8, ptr %3, i64 8
  store ptr %11, ptr %12, align 8
  %13 = call i64 @_ZNK32pxrInternal_v0_24__pxrReserved__26Sdf_PathExpressionEvalBase16_PatternImplBase6_MatchERKNS_7SdfPathENS_13TfFunctionRefIFNS_26SdfPredicateFunctionResultEiS4_EEE(ptr noundef nonnull align 8 dereferenceable(107) %5, ptr noundef nonnull align 4 dereferenceable(8) %9, ptr nonnull %3, ptr nonnull @"_ZN32pxrInternal_v0_24__pxrReserved__13TfFunctionRefIFNS_26SdfPredicateFunctionResultEiRKNS_7SdfPathEEE9_InvokeFnIZNKS_21SdfPathExpressionEvalIRKNS_16HdSceneIndexPrimEE12_PatternImpl5MatchIZNKS_31HdCollectionExpressionEvaluator5MatchES4_E3$_0EES1_S4_RKT_EUliS4_E_EES1_PKviS4_")
  call void @llvm.lifetime.end.p0(i64 16, ptr nonnull %3)
  br label %"_ZZNK32pxrInternal_v0_24__pxrReserved__21SdfPathExpressionEvalIRKNS_16HdSceneIndexPrimEE5MatchIZNKS_31HdCollectionExpressionEvaluator5MatchERKNS_7SdfPathEE3$_0EENS_26SdfPredicateFunctionResultES9_RKT_ENKUlbE_clEb.exit"

"_ZZNK32pxrInternal_v0_24__pxrReserved__21SdfPathExpressionEvalIRKNS_16HdSceneIndexPrimEE5MatchIZNKS_31HdCollectionExpressionEvaluator5MatchERKNS_7SdfPathEE3$_0EENS_26SdfPredicateFunctionResultES9_RKT_ENKUlbE_clEb.exit": ; preds = %2, %7
  %.sroa.01.0.insert.insert.i = phi i64 [ %13, %7 ], [ 4294967296, %2 ]
  ret i64 %.sroa.01.0.insert.insert.i
}